; Function Attrs: mustprogress uwtable
define internal fastcc void @_ZN4absl24synchronization_internalL15CheckInvariantsERKNS0_11GraphCyclesE(ptr noundef nonnull align 8 dereferenceable(8) %gc) unnamed_addr #3 personality ptr @__gxx_personality_v0 {
entry:
  %ref.tmp1 = alloca %"class.absl::log_internal::LogMessageFatal", align 8
  %call = tail call noundef zeroext i1 @_ZNK4absl24synchronization_internal11GraphCycles15CheckInvariantsEv(ptr noundef nonnull align 8 dereferenceable(8) %gc)
  br i1 %call, label %cleanup.done, label %cond.false

cond.false:                                       ; preds = %entry
  call void @_ZN4absl12log_internal15LogMessageFatalC1EPKciSt17basic_string_viewIcSt11char_traitsIcEE(ptr noundef nonnull align 8 dereferenceable(16) %ref.tmp1, ptr noundef nonnull @.str.3, i32 noundef 163, i64 20, ptr nonnull @.str.90) #26
  invoke void @_ZN4absl12log_internal10LogMessage19CopyToEncodedBufferILNS1_10StringTypeE0EEEvSt17basic_string_viewIcSt11char_traitsIcEE(ptr noundef nonnull align 8 dereferenceable(16) %ref.tmp1, i64 15, ptr nonnull @.str.91)
          to label %cleanup.action unwind label %lpad

cleanup.action:                                   ; preds = %cond.false
  call void @_ZN4absl12log_internal15LogMessageFatalD1Ev(ptr noundef nonnull align 8 dereferenceable(16) %ref.tmp1) #27
  unreachable

lpad:                                             ; preds = %cond.false
  %0 = landingpad { ptr, i32 }
          cleanup
  call void @_ZN4absl12log_internal15LogMessageFatalD1Ev(ptr noundef nonnull align 8 dereferenceable(16) %ref.tmp1) #27
  unreachable

cleanup.done:                                     ; preds = %entry
  ret void
}